target datalayout = "e-m:e-p270:32:32-p271:32:32-p272:64:64-i64:64-i128:128-f80:128-n8:16:32:64-S128"
target triple = "x86_64-unknown-linux-gnu"

%struct.QemuUUID = type { %union.anon.7 }
%union.anon.7 = type { %struct.anon.8 }
%struct.anon.8 = type { i32, i16, i16, i8, i8, [6 x i8] }
%struct.DeviceState = type { %struct.Object, ptr, ptr, i8, i8, i64, ptr, i32, i8, ptr, %struct.NamedGPIOListHead, %struct.NamedClockListHead, %struct.BusStateHead, i32, i32, i32, %struct.ResettableState, ptr, %struct.MemReentrancyGuard }
%struct.Object = type { ptr, ptr, ptr, i32, ptr }
%struct.NamedGPIOListHead = type { ptr }
%struct.NamedClockListHead = type { ptr }
%struct.BusStateHead = type { ptr }
%struct.ResettableState = type { i32, i8, i8 }
%struct.MemReentrancyGuard = type { i8 }
%struct.VmGenIdState = type { %struct.DeviceState, %struct.QemuUUID, [8 x i8] }
%struct.GuidInfo = type { ptr }

@.str = private unnamed_addr constant [35 x i8] c"../qemu/hw/core/machine-qmp-cmds.c\00", align 1
@.str.5 = private unnamed_addr constant [1 x i8] zeroinitializer, align 1
@__func__.qmp_query_vm_generation_id = private unnamed_addr constant [27 x i8] c"qmp_query_vm_generation_id\00", align 1
@.str.14 = private unnamed_addr constant [34 x i8] c"VM Generation ID device not found\00", align 1
@.str.36 = private unnamed_addr constant [8 x i8] c"vmgenid\00", align 1
@.str.37 = private unnamed_addr constant [104 x i8] c"/home/dtcxzyw/WorkSpace/Projects/compilers/llvm-opt-benchmark/bench/qemu/qemu/include/hw/acpi/vmgenid.h\00", align 1
@__func__.VMGENID = private unnamed_addr constant [8 x i8] c"VMGENID\00", align 1

; Function Attrs: nounwind sspstrong uwtable
define internal ptr @VMGENID(ptr noundef %obj) #0 {
entry:
  %obj.addr = alloca ptr, align 8
  store ptr %obj, ptr %obj.addr, align 8
  %0 = load ptr, ptr %obj.addr, align 8
  %call = call ptr @object_dynamic_cast_assert(ptr noundef %0, ptr noundef @.str.36, ptr noundef @.str.37, i32 noundef 19, ptr noundef @__func__.VMGENID)
  ret ptr %call
}

; Function Attrs: nounwind sspstrong uwtable
define internal ptr @find_vmgenid_dev() #0 {
entry:
  %call = call ptr @object_resolve_path_type(ptr noundef @.str.5, ptr noundef @.str.36, ptr noundef null)
  ret ptr %call
}

; Function Attrs: nounwind sspstrong uwtable
define dso_local ptr @qmp_query_vm_generation_id(ptr noundef %errp) #0 {
entry:
  %retval = alloca ptr, align 8
  %errp.addr = alloca ptr, align 8
  %info = alloca ptr, align 8
  %vms = alloca ptr, align 8
  %obj = alloca ptr, align 8
  store ptr %errp, ptr %errp.addr, align 8
  %call = call ptr @find_vmgenid_dev()
  store ptr %call, ptr %obj, align 8
  %0 = load ptr, ptr %obj, align 8
  %tobool = icmp ne ptr %0, null
  br i1 %tobool, label %if.end, label %if.then

if.then:                                          ; preds = %entry
  %1 = load ptr, ptr %errp.addr, align 8
  call void (ptr, ptr, i32, ptr, ptr, ...) @error_setg_internal(ptr noundef %1, ptr noundef @.str, i32 noundef 383, ptr noundef @__func__.qmp_query_vm_generation_id, ptr noundef @.str.14)
  store ptr null, ptr %retval, align 8
  br label %return

if.end:                                           ; preds = %entry
  %2 = load ptr, ptr %obj, align 8
  %call1 = call ptr @VMGENID(ptr noundef %2)
  store ptr %call1, ptr %vms, align 8
  %call2 = call noalias ptr @g_malloc0(i64 noundef 8) #9
  store ptr %call2, ptr %info, align 8
  %3 = load ptr, ptr %vms, align 8
  %guid = getelementptr inbounds %struct.VmGenIdState, ptr %3, i32 0, i32 1
  %call3 = call ptr @qemu_uuid_unparse_strdup(ptr noundef %guid)
  %4 = load ptr, ptr %info, align 8
  %guid4 = getelementptr inbounds %struct.GuidInfo, ptr %4, i32 0, i32 0
  store ptr %call3, ptr %guid4, align 8
  %5 = load ptr, ptr %info, align 8
  store ptr %5, ptr %retval, align 8
  br label %return

return:                                           ; preds = %if.end, %if.then
  %6 = load ptr, ptr %retval, align 8
  ret ptr %6
}