; Function Attrs: nounwind sspstrong uwtable
define dso_local noalias noundef ptr @qmp_query_vm_generation_id(ptr noundef %errp) local_unnamed_addr #0 {
entry:
  %call.i = tail call ptr @object_resolve_path_type(ptr noundef nonnull @.str.5, ptr noundef nonnull @.str.36, ptr noundef null) #7
  %tobool.not = icmp eq ptr %call.i, null
  br i1 %tobool.not, label %if.then, label %if.end

if.then:                                          ; preds = %entry
  tail call void (ptr, ptr, i32, ptr, ptr, ...) @error_setg_internal(ptr noundef %errp, ptr noundef nonnull @.str, i32 noundef 383, ptr noundef nonnull @__func__.qmp_query_vm_generation_id, ptr noundef nonnull @.str.14) #7
  br label %return

if.end:                                           ; preds = %entry
  %call.i3 = tail call ptr @object_dynamic_cast_assert(ptr noundef nonnull %call.i, ptr noundef nonnull @.str.36, ptr noundef nonnull @.str.37, i32 noundef 19, ptr noundef nonnull @__func__.VMGENID) #7
  %call2 = tail call noalias dereferenceable_or_null(8) ptr @g_malloc0(i64 noundef 8) #8
  %guid = getelementptr inbounds nuw i8, ptr %call.i3, i64 160
  %call3 = tail call ptr @qemu_uuid_unparse_strdup(ptr noundef nonnull %guid) #7
  store ptr %call3, ptr %call2, align 8
  br label %return

return:                                           ; preds = %if.end, %if.then
  %retval.0 = phi ptr [ %call2, %if.end ], [ null, %if.then ]
  ret ptr %retval.0
}